Certificate:
    Data:
        Version: 3 (0x2)
        Serial Number:
            ec:fb:17:48:14:c3:e3:a1:06:62:5a:c0:c9:2a:8e:85
        Signature Algorithm: sha256WithRSAEncryption
        Issuer: CN=scialla.duckdns.org
        Validity
            Not Before: Jan 12 18:29:35 2022 GMT
            Not After : Dec 27 18:29:35 2024 GMT
        Subject: CN=Scialla
        Subject Public Key Info:
            Public Key Algorithm: rsaEncryption
                RSA Public-Key: (2048 bit)
                Modulus:
                    00:b5:7d:50:98:79:72:06:47:0f:33:17:5c:a9:4c:
                    61:2c:ee:5e:e4:94:68:51:c8:52:c1:1d:dd:49:fc:
                    6b:95:cf:78:f3:57:90:2c:ac:c8:37:13:32:1f:70:
                    e5:c8:0c:bc:80:1c:bd:23:a6:c2:ef:a3:9e:66:8b:
                    2a:f3:35:a3:19:fa:78:bb:dc:61:54:65:a7:73:b8:
                    7c:bc:78:47:e9:db:19:ba:86:05:32:69:8a:09:f9:
                    0d:9e:45:c5:9e:cd:f1:a2:89:c8:58:36:e8:c1:51:
                    2d:ed:42:31:c6:0b:1d:2c:bc:99:8e:ba:f4:a7:ee:
                    36:0e:18:7b:e3:17:2f:00:8a:f4:c0:0c:5b:89:68:
                    04:19:80:64:a7:c3:f3:b1:f6:df:07:b6:25:02:fe:
                    4c:2c:65:9c:6e:28:e4:08:c5:19:6f:47:aa:d5:9d:
                    04:02:70:c2:76:3c:94:4a:13:c1:62:ea:ab:c5:72:
                    6d:69:ee:a5:41:15:80:b8:08:08:53:0b:f4:53:3c:
                    c1:78:a3:7e:7d:9b:b5:2c:65:cc:0b:22:b6:93:4a:
                    64:44:5e:a5:fe:3b:20:c8:70:bd:70:70:0c:59:55:
                    5f:9e:99:a2:f6:d7:6f:cb:d8:47:2f:3e:bc:c7:a8:
                    34:70:40:d9:2a:1c:8d:0f:df:1f:e4:6e:64:20:1d:
                    90:87
                Exponent: 65537 (0x10001)
        X509v3 extensions:
            X509v3 Basic Constraints: 
                CA:FALSE
            X509v3 Subject Key Identifier: 
                B0:72:20:33:D8:A9:73:C4:68:0E:7E:5D:1A:63:D4:80:E8:D3:2C:4A
            X509v3 Authority Key Identifier: 
                keyid:AE:F8:6B:B3:84:DB:68:94:68:E3:46:0D:91:96:26:A8:6C:1C:F5:43
                DirName:/CN=scialla.duckdns.org
                serial:60:AF:35:16:CF:64:19:DA:22:E4:11:D7:8E:EA:9E:61:BB:32:98:B3

            X509v3 Extended Key Usage: 
                TLS Web Client Authentication
            X509v3 Key Usage: 
                Digital Signature
    Signature Algorithm: sha256WithRSAEncryption
         12:2f:82:08:7d:ec:7f:de:7a:a9:e5:c1:fb:f8:4d:b0:1d:91:
         a0:5e:93:7c:2e:79:83:1e:68:84:43:17:3f:a2:d7:3a:f5:d6:
         98:bf:1f:38:68:38:31:5b:c1:68:bf:5a:d0:b9:f1:91:d7:81:
         e3:42:27:9a:fe:d8:f7:ae:35:52:88:01:cb:c2:d7:33:62:5c:
         9d:f6:03:af:ba:8e:ee:4f:a6:17:bb:a9:d5:eb:b8:df:e7:64:
         2f:2f:83:a8:93:dc:dc:15:d9:0f:de:6b:d4:a3:96:12:d0:e7:
         92:c5:e6:31:0d:c7:12:5a:6d:de:95:f2:ec:6b:65:09:ec:1c:
         60:70:86:e9:5c:d6:be:74:3a:72:93:3b:5e:55:21:d2:fa:ac:
         ff:fb:7a:4c:74:ab:79:17:72:35:79:73:13:6e:16:8f:80:ef:
         73:0b:22:57:39:ef:71:8f:58:0f:57:b1:85:af:56:0a:f0:86:
         72:39:43:09:65:6d:d8:61:dc:51:a1:d8:36:6b:6a:f2:e9:11:
         f3:c9:b8:a3:a3:69:95:f1:4c:02:62:c0:20:ff:dc:0a:b3:9c:
         8c:90:4b:9f:17:98:b4:d1:67:40:d9:7f:4f:de:6b:65:0c:ad:
         b7:17:47:62:2b:e4:68:33:4d:99:eb:8e:97:f7:35:fd:91:9c:
         da:3d:a2:49
-----BEGIN CERTIFICATE-----
MIIDZjCCAk6gAwIBAgIRAOz7F0gUw+OhBmJawMkqjoUwDQYJKoZIhvcNAQELBQAw
HjEcMBoGA1UEAwwTc2NpYWxsYS5kdWNrZG5zLm9yZzAeFw0yMjAxMTIxODI5MzVa
Fw0yNDEyMjcxODI5MzVaMBIxEDAOBgNVBAMMB1NjaWFsbGEwggEiMA0GCSqGSIb3
DQEBAQUAA4IBDwAwggEKAoIBAQC1fVCYeXIGRw8zF1ypTGEs7l7klGhRyFLBHd1J
/GuVz3jzV5AsrMg3EzIfcOXIDLyAHL0jpsLvo55miyrzNaMZ+ni73GFUZadzuHy8
eEfp2xm6hgUyaYoJ+Q2eRcWezfGiichYNujBUS3tQjHGCx0svJmOuvSn7jYOGHvj
Fy8AivTADFuJaAQZgGSnw/Ox9t8HtiUC/kwsZZxuKOQIxRlvR6rVnQQCcMJ2PJRK
E8Fi6qvFcm1p7qVBFYC4CAhTC/RTPMF4o359m7UsZcwLIraTSmREXqX+OyDIcL1w
cAxZVV+emaL212/L2EcvPrzHqDRwQNkqHI0P3x/kbmQgHZCHAgMBAAGjgaowgacw
CQYDVR0TBAIwADAdBgNVHQ4EFgQUsHIgM9ipc8RoDn5dGmPUgOjTLEowWQYDVR0j
BFIwUIAUrvhrs4TbaJRo40YNkZYmqGwc9UOhIqQgMB4xHDAaBgNVBAMME3NjaWFs
bGEuZHVja2Rucy5vcmeCFGCvNRbPZBnaIuQR147qnmG7MpizMBMGA1UdJQQMMAoG
CCsGAQUFBwMCMAsGA1UdDwQEAwIHgDANBgkqhkiG9w0BAQsFAAOCAQEAEi+CCH3s
f956qeXB+/hNsB2RoF6TfC55gx5ohEMXP6LXOvXWmL8fOGg4MVvBaL9a0LnxkdeB
40Inmv7Y9641UogBy8LXM2JcnfYDr7qO7k+mF7up1eu43+dkLy+DqJPc3BXZD95r
1KOWEtDnksXmMQ3HElpt3pXy7GtlCewcYHCG6VzWvnQ6cpM7XlUh0vqs//t6THSr
eRdyNXlzE24Wj4DvcwsiVznvcY9YD1exha9WCvCGcjlDCWVt2GHcUaHYNmtq8ukR
88m4o6NplfFMAmLAIP/cCrOcjJBLnxeYtNFnQNl/T95rZQyttxdHYivkaDNNmeuO
l/c1/ZGc2j2iSQ==
-----END CERTIFICATE-----
