Certificate:
    Data:
        Version: 3 (0x2)
        Serial Number:
            92:e0:5a:59:4e:44:20:ac:5f:29:2a:ad:71:2d:68:c4
        Signature Algorithm: sha256WithRSAEncryption
        Issuer: CN=scialla.duckdns.org
        Validity
            Not Before: Jan 12 18:20:51 2022 GMT
            Not After : Dec 27 18:20:51 2024 GMT
        Subject: CN=scialla.duckdns.org
        Subject Public Key Info:
            Public Key Algorithm: rsaEncryption
                RSA Public-Key: (2048 bit)
                Modulus:
                    00:db:eb:b5:d3:1d:aa:7e:da:c2:23:1f:7b:1e:1f:
                    3e:20:44:a6:07:69:84:99:fa:72:8b:3c:ee:7b:44:
                    e4:4a:2d:0d:68:59:27:78:df:ea:04:23:9f:92:78:
                    09:66:37:9a:ec:7a:d4:d2:77:a3:10:8e:82:e9:f2:
                    2d:1e:95:31:24:c4:63:fb:8f:16:f8:d1:58:d0:b4:
                    0a:fd:58:1e:fb:5e:49:98:b5:35:27:dc:46:52:35:
                    5a:54:47:ff:45:b6:e4:c4:c5:b9:32:e4:c0:b7:08:
                    bf:e3:30:6b:0d:83:c4:7a:c0:36:c2:47:b3:f1:ef:
                    58:50:76:78:cc:ec:0d:56:d2:c2:e3:7e:b2:fe:23:
                    f3:53:d4:3e:5b:13:be:e8:b5:d3:60:f4:49:ed:33:
                    3f:1b:4c:e3:68:1a:8e:38:97:80:aa:00:04:8b:bd:
                    a8:91:88:60:f2:0f:79:68:2f:f8:a8:b2:8a:c9:28:
                    ca:0e:b4:9d:67:c9:52:cd:68:9b:15:72:ca:71:bf:
                    c9:c5:10:02:f3:a7:72:05:f6:43:35:38:41:c5:4c:
                    2a:96:8d:0c:3d:77:c7:c7:4c:70:2f:95:9a:e2:72:
                    f2:98:18:39:11:af:19:49:b2:e2:65:71:db:27:33:
                    5c:ec:81:41:7d:98:7b:d3:c4:a4:cd:a6:e2:41:86:
                    09:75
                Exponent: 65537 (0x10001)
        X509v3 extensions:
            X509v3 Basic Constraints: 
                CA:FALSE
            X509v3 Subject Key Identifier: 
                CC:8C:62:83:F2:54:E1:4F:28:A5:BF:2C:66:63:B4:62:44:C8:EC:E3
            X509v3 Authority Key Identifier: 
                keyid:AE:F8:6B:B3:84:DB:68:94:68:E3:46:0D:91:96:26:A8:6C:1C:F5:43
                DirName:/CN=scialla.duckdns.org
                serial:60:AF:35:16:CF:64:19:DA:22:E4:11:D7:8E:EA:9E:61:BB:32:98:B3

            X509v3 Extended Key Usage: 
                TLS Web Server Authentication
            X509v3 Key Usage: 
                Digital Signature, Key Encipherment
            X509v3 Subject Alternative Name: 
                DNS:scialla.duckdns.org
    Signature Algorithm: sha256WithRSAEncryption
         43:18:1d:1b:1c:70:7b:70:b3:de:68:63:af:28:16:3f:19:bf:
         91:0d:c5:7e:13:af:d3:30:39:27:50:85:95:05:4b:29:58:9a:
         73:50:bf:d0:63:13:38:43:50:8f:dc:ef:c1:8f:06:6b:8a:da:
         96:5e:5f:fe:7c:37:1c:c3:2c:5c:18:3d:8b:e2:8d:39:94:79:
         44:8c:85:19:62:ef:da:3c:07:e7:4a:aa:d9:4c:ae:2e:d8:84:
         3e:f1:24:3f:66:0a:6a:dc:a0:2f:03:64:34:18:8a:47:c0:0c:
         de:92:02:43:39:7d:76:94:81:fc:d7:50:70:8f:18:9a:a4:09:
         7b:30:8d:9d:d2:29:db:64:c7:63:6d:8f:e2:10:12:42:0d:c4:
         c1:9b:30:8f:22:7a:65:bd:3a:96:41:f5:36:98:74:6d:5e:a0:
         40:8c:76:65:c1:6c:e5:12:3c:c7:ac:ff:c1:eb:e9:6a:54:00:
         7f:93:e8:d7:c5:cf:49:96:7a:41:a4:d6:eb:f4:95:69:8a:65:
         b8:09:9c:01:b2:43:49:97:1b:0e:c9:e8:87:aa:5d:02:ac:f7:
         8b:11:70:38:f7:4b:35:45:4d:2b:66:44:47:4f:f6:67:66:72:
         dd:ff:54:8d:f9:09:86:fe:a2:05:82:fd:a4:78:76:81:6a:b7:
         8b:03:66:db
-----BEGIN CERTIFICATE-----
MIIDkjCCAnqgAwIBAgIRAJLgWllORCCsXykqrXEtaMQwDQYJKoZIhvcNAQELBQAw
HjEcMBoGA1UEAwwTc2NpYWxsYS5kdWNrZG5zLm9yZzAeFw0yMjAxMTIxODIwNTFa
Fw0yNDEyMjcxODIwNTFaMB4xHDAaBgNVBAMME3NjaWFsbGEuZHVja2Rucy5vcmcw
ggEiMA0GCSqGSIb3DQEBAQUAA4IBDwAwggEKAoIBAQDb67XTHap+2sIjH3seHz4g
RKYHaYSZ+nKLPO57RORKLQ1oWSd43+oEI5+SeAlmN5rsetTSd6MQjoLp8i0elTEk
xGP7jxb40VjQtAr9WB77XkmYtTUn3EZSNVpUR/9FtuTExbky5MC3CL/jMGsNg8R6
wDbCR7Px71hQdnjM7A1W0sLjfrL+I/NT1D5bE77otdNg9EntMz8bTONoGo44l4Cq
AASLvaiRiGDyD3loL/iosorJKMoOtJ1nyVLNaJsVcspxv8nFEALzp3IF9kM1OEHF
TCqWjQw9d8fHTHAvlZricvKYGDkRrxlJsuJlcdsnM1zsgUF9mHvTxKTNpuJBhgl1
AgMBAAGjgcowgccwCQYDVR0TBAIwADAdBgNVHQ4EFgQUzIxig/JU4U8opb8sZmO0
YkTI7OMwWQYDVR0jBFIwUIAUrvhrs4TbaJRo40YNkZYmqGwc9UOhIqQgMB4xHDAa
BgNVBAMME3NjaWFsbGEuZHVja2Rucy5vcmeCFGCvNRbPZBnaIuQR147qnmG7Mpiz
MBMGA1UdJQQMMAoGCCsGAQUFBwMBMAsGA1UdDwQEAwIFoDAeBgNVHREEFzAVghNz
Y2lhbGxhLmR1Y2tkbnMub3JnMA0GCSqGSIb3DQEBCwUAA4IBAQBDGB0bHHB7cLPe
aGOvKBY/Gb+RDcV+E6/TMDknUIWVBUspWJpzUL/QYxM4Q1CP3O/BjwZritqWXl/+
fDccwyxcGD2L4o05lHlEjIUZYu/aPAfnSqrZTK4u2IQ+8SQ/Zgpq3KAvA2Q0GIpH
wAzekgJDOX12lIH811BwjxiapAl7MI2d0inbZMdjbY/iEBJCDcTBmzCPInplvTqW
QfU2mHRtXqBAjHZlwWzlEjzHrP/B6+lqVAB/k+jXxc9JlnpBpNbr9JVpimW4CZwB
skNJlxsOyeiHql0CrPeLEXA490s1RU0rZkRHT/ZnZnLd/1SN+QmG/qIFgv2keHaB
areLA2bb
-----END CERTIFICATE-----
